target datalayout = "e-m:e-p270:32:32-p271:32:32-p272:64:64-i64:64-i128:128-f80:128-n8:16:32:64-S128"
target triple = "x86_64-pc-linux-gnu"

%struct.OSQPMatrix_ = type { ptr, i32 }
%struct.OSQPVectori_ = type { ptr, i64 }

@.str = private unnamed_addr constant [14 x i8] c"ERROR in %s: \00", align 1
@.str.2 = private unnamed_addr constant [2 x i8] c"\0A\00", align 1
@__func__.OSQPMatrix_submatrix_byrows = private unnamed_addr constant [28 x i8] c"OSQPMatrix_submatrix_byrows\00", align 1
@.str.4 = private unnamed_addr constant [60 x i8] c"row selection not implemented for partially filled matrices\00", align 1

; Function Attrs: nounwind uwtable
define ptr @OSQPMatrix_submatrix_byrows(ptr noundef %0, ptr noundef %1) #0 {
  %3 = alloca ptr, align 8
  %4 = alloca ptr, align 8
  %5 = alloca ptr, align 8
  %6 = alloca ptr, align 8
  %7 = alloca ptr, align 8
  store ptr %0, ptr %4, align 8
  store ptr %1, ptr %5, align 8
  %8 = load ptr, ptr %4, align 8
  %9 = getelementptr inbounds %struct.OSQPMatrix_, ptr %8, i32 0, i32 1
  %10 = load i32, ptr %9, align 8
  %11 = icmp eq i32 %10, 1
  br i1 %11, label %12, label %16

12:                                               ; preds = %2
  %13 = call i32 (ptr, ...) @printf(ptr noundef @.str, ptr noundef @__func__.OSQPMatrix_submatrix_byrows)
  %14 = call i32 (ptr, ...) @printf(ptr noundef @.str.4)
  %15 = call i32 (ptr, ...) @printf(ptr noundef @.str.2)
  store ptr null, ptr %3, align 8
  br label %40

16:                                               ; preds = %2
  %17 = load ptr, ptr %4, align 8
  %18 = getelementptr inbounds %struct.OSQPMatrix_, ptr %17, i32 0, i32 0
  %19 = load ptr, ptr %18, align 8
  %20 = load ptr, ptr %5, align 8
  %21 = getelementptr inbounds %struct.OSQPVectori_, ptr %20, i32 0, i32 0
  %22 = load ptr, ptr %21, align 8
  %23 = call ptr @csc_submatrix_byrows(ptr noundef %19, ptr noundef %22)
  store ptr %23, ptr %6, align 8
  %24 = load ptr, ptr %6, align 8
  %25 = icmp ne ptr %24, null
  br i1 %25, label %27, label %26

26:                                               ; preds = %16
  store ptr null, ptr %3, align 8
  br label %40

27:                                               ; preds = %16
  %28 = call noalias ptr @malloc(i64 noundef 16) #4
  store ptr %28, ptr %7, align 8
  %29 = load ptr, ptr %7, align 8
  %30 = icmp ne ptr %29, null
  br i1 %30, label %33, label %31

31:                                               ; preds = %27
  %32 = load ptr, ptr %6, align 8
  call void @csc_spfree(ptr noundef %32)
  store ptr null, ptr %3, align 8
  br label %40

33:                                               ; preds = %27
  %34 = load ptr, ptr %7, align 8
  %35 = getelementptr inbounds %struct.OSQPMatrix_, ptr %34, i32 0, i32 1
  store i32 0, ptr %35, align 8
  %36 = load ptr, ptr %6, align 8
  %37 = load ptr, ptr %7, align 8
  %38 = getelementptr inbounds %struct.OSQPMatrix_, ptr %37, i32 0, i32 0
  store ptr %36, ptr %38, align 8
  %39 = load ptr, ptr %7, align 8
  store ptr %39, ptr %3, align 8
  br label %40

40:                                               ; preds = %33, %31, %26, %12
  %41 = load ptr, ptr %3, align 8
  ret ptr %41
}