; Function Attrs: nounwind uwtable
define noalias noundef ptr @OSQPMatrix_submatrix_byrows(ptr nocapture noundef readonly %0, ptr nocapture noundef readonly %1) local_unnamed_addr #0 {
  %3 = getelementptr inbounds i8, ptr %0, i64 8
  %4 = load i32, ptr %3, align 8
  %5 = icmp eq i32 %4, 1
  br i1 %5, label %6, label %9

6:                                                ; preds = %2
  %7 = tail call i32 (ptr, ...) @printf(ptr noundef nonnull dereferenceable(1) @.str, ptr noundef nonnull @__func__.OSQPMatrix_submatrix_byrows)
  %8 = tail call i32 (ptr, ...) @printf(ptr noundef nonnull dereferenceable(1) @.str.4)
  %putchar = tail call i32 @putchar(i32 10)
  br label %18

9:                                                ; preds = %2
  %10 = load ptr, ptr %0, align 8
  %11 = load ptr, ptr %1, align 8
  %12 = tail call ptr @csc_submatrix_byrows(ptr noundef %10, ptr noundef %11) #7
  %.not = icmp eq ptr %12, null
  br i1 %.not, label %18, label %13

13:                                               ; preds = %9
  %14 = tail call noalias dereferenceable_or_null(16) ptr @malloc(i64 noundef 16) #8
  %.not13 = icmp eq ptr %14, null
  br i1 %.not13, label %15, label %16

15:                                               ; preds = %13
  tail call void @csc_spfree(ptr noundef nonnull %12) #7
  br label %18

16:                                               ; preds = %13
  %17 = getelementptr inbounds i8, ptr %14, i64 8
  store i32 0, ptr %17, align 8
  store ptr %12, ptr %14, align 8
  br label %18

18:                                               ; preds = %9, %16, %15, %6
  %.0 = phi ptr [ null, %6 ], [ %14, %16 ], [ null, %15 ], [ null, %9 ]
  ret ptr %.0
}